; Function Attrs: null_pointer_is_valid sspstrong uwtable
define internal i32 @dissect_ansi_tcap_T_conversationWithoutPerm(i1 noundef zeroext %0, ptr noundef %1, i32 noundef %2, ptr noundef %3, ptr noundef %4, i32 noundef %5) #0 {
  %7 = load ptr, ptr @gp_tcapsrt_info, align 8
  %8 = getelementptr inbounds nuw i8, ptr %7, i64 12
  store i8 6, ptr %8, align 4
  %9 = getelementptr inbounds nuw i8, ptr %3, i64 16
  %10 = load ptr, ptr %9, align 8
  %11 = getelementptr inbounds nuw i8, ptr %10, i64 8
  %12 = load ptr, ptr %11, align 8
  tail call void @col_set_str(ptr noundef %12, i32 noundef 25, ptr noundef nonnull @.str.245)
  %13 = load i32, ptr @ett_ansi_tcap_TransactionPDU, align 4
  %14 = tail call i32 @dissect_ber_sequence(i1 noundef zeroext %0, ptr noundef %3, ptr noundef %4, ptr noundef %1, i32 noundef %2, ptr noundef nonnull @TransactionPDU_sequence, i32 noundef %5, i32 noundef %13)
  ret i32 %14
}